; Function Attrs: mustprogress nofree norecurse nosync nounwind willreturn memory(argmem: write) uwtable
define internal fastcc void @_ZN2cvL28softfloat_normRoundPackToF32Eblm(ptr dead_on_unwind noalias nocapture writable writeonly align 4 %0, i1 noundef zeroext %1, i64 noundef %2, i64 noundef %3) unnamed_addr #0 {
  %5 = trunc i64 %3 to i32
  %6 = icmp ult i32 %5, 65536
  %7 = shl nuw i32 %5, 16
  %spec.select.i = select i1 %6, i32 %7, i32 %5
  %spec.select12.i = select i1 %6, i8 16, i8 0
  %8 = icmp ult i32 %spec.select.i, 16777216
  %9 = or disjoint i8 %spec.select12.i, 8
  %10 = shl nuw i32 %spec.select.i, 8
  %.19.i = select i1 %8, i32 %10, i32 %spec.select.i
  %.1.i = select i1 %8, i8 %9, i8 %spec.select12.i
  %11 = lshr i32 %.19.i, 24
  %12 = zext nneg i32 %11 to i64
  %13 = getelementptr inbounds [256 x i8], ptr @_ZN2cvL28softfloat_countLeadingZeros8E, i64 0, i64 %12
  %14 = load i8, ptr %13, align 1
  %15 = add nsw i8 %.1.i, -1
  %16 = add i8 %15, %14
  %17 = sext i8 %16 to i64
  %18 = sub nsw i64 %2, %17
  %19 = sext i8 %16 to i32
  %20 = icmp sgt i8 %16, 6
  %21 = icmp ult i64 %18, 253
  %or.cond = select i1 %20, i1 %21, i1 false
  br i1 %or.cond, label %22, label %31

22:                                               ; preds = %4
  %23 = select i1 %1, i64 2147483648, i64 0
  %.not = icmp eq i64 %3, 0
  %24 = shl nuw nsw i64 %18, 23
  %25 = select i1 %.not, i64 0, i64 %24
  %26 = or disjoint i64 %25, %23
  %27 = add nsw i32 %19, -7
  %28 = zext nneg i32 %27 to i64
  %29 = shl i64 %3, %28
  %30 = add i64 %26, %29
  br label %_ZN2cvL24softfloat_roundPackToF32Eblm.exit

31:                                               ; preds = %4
  %32 = zext nneg i32 %19 to i64
  %33 = shl i64 %3, %32
  %34 = trunc i64 %33 to i8
  %35 = trunc i64 %18 to i32
  %36 = icmp ugt i32 %35, 252
  br i1 %36, label %37, label %64

37:                                               ; preds = %31
  %38 = icmp slt i64 %18, 0
  br i1 %38, label %39, label %58

39:                                               ; preds = %37
  %40 = trunc i64 %33 to i32
  %41 = sub nsw i64 0, %18
  %42 = icmp ult i64 %41, 31
  br i1 %42, label %43, label %52

43:                                               ; preds = %39
  %44 = trunc nuw i64 %41 to i32
  %45 = lshr i32 %40, %44
  %46 = sub nsw i32 0, %44
  %47 = and i32 %46, 31
  %48 = shl i32 %40, %47
  %49 = icmp ne i32 %48, 0
  %50 = zext i1 %49 to i32
  %51 = or i32 %45, %50
  br label %_ZN2cvL25softfloat_shiftRightJam32Ejm.exit.i

52:                                               ; preds = %39
  %53 = icmp ne i32 %40, 0
  %54 = zext i1 %53 to i32
  br label %_ZN2cvL25softfloat_shiftRightJam32Ejm.exit.i

_ZN2cvL25softfloat_shiftRightJam32Ejm.exit.i:     ; preds = %52, %43
  %55 = phi i32 [ %51, %43 ], [ %54, %52 ]
  %56 = zext nneg i32 %55 to i64
  %57 = trunc i32 %55 to i8
  br label %64

58:                                               ; preds = %37
  %59 = icmp ugt i64 %18, 253
  %60 = add i64 %33, -2147483584
  %61 = icmp ult i64 %60, -2147483648
  %or.cond.i = or i1 %59, %61
  br i1 %or.cond.i, label %62, label %64

62:                                               ; preds = %58
  %63 = select i1 %1, i64 4286578688, i64 2139095040
  br label %_ZN2cvL24softfloat_roundPackToF32Eblm.exit

64:                                               ; preds = %58, %_ZN2cvL25softfloat_shiftRightJam32Ejm.exit.i, %31
  %.041.i = phi i64 [ %33, %31 ], [ %33, %58 ], [ %56, %_ZN2cvL25softfloat_shiftRightJam32Ejm.exit.i ]
  %.039.in.i = phi i8 [ %34, %31 ], [ %34, %58 ], [ %57, %_ZN2cvL25softfloat_shiftRightJam32Ejm.exit.i ]
  %.038.i = phi i64 [ %18, %31 ], [ 253, %58 ], [ 0, %_ZN2cvL25softfloat_shiftRightJam32Ejm.exit.i ]
  %.039.i = and i8 %.039.in.i, 127
  %65 = add i64 %.041.i, 64
  %66 = lshr i64 %65, 7
  %.not48.i = icmp eq i8 %.039.i, 64
  %67 = zext i1 %.not48.i to i64
  %68 = xor i64 %67, -1
  %69 = and i64 %66, %68
  %.not49.i = icmp eq i64 %69, 0
  %70 = shl i64 %.038.i, 23
  %71 = select i1 %1, i64 2147483648, i64 0
  %72 = select i1 %.not49.i, i64 0, i64 %70
  %73 = add i64 %72, %71
  %74 = and i64 %73, 4286578688
  %75 = add nuw nsw i64 %74, %69
  br label %_ZN2cvL24softfloat_roundPackToF32Eblm.exit

_ZN2cvL24softfloat_roundPackToF32Eblm.exit:       ; preds = %64, %62, %22
  %storemerge.in = phi i64 [ %30, %22 ], [ %75, %64 ], [ %63, %62 ]
  %storemerge = trunc i64 %storemerge.in to i32
  store i32 %storemerge, ptr %0, align 4
  ret void
}